; ModuleID = '16/917.c'
source_filename = "16/917.c"
target datalayout = "e-m:e-p270:32:32-p271:32:32-p272:64:64-i64:64-f80:128-n8:16:32:64-S128"
target triple = "x86_64-pc-linux-gnu"

@.str = private unnamed_addr constant [3 x i8] c"%d\00", align 1
@.str.1 = private unnamed_addr constant [2 x i8] c"0\00", align 1

; Function Attrs: noinline nounwind uwtable
define dso_local i32 @main() #0 {
  %1 = alloca i32, align 4
  %2 = alloca i32, align 4
  %3 = alloca i32, align 4
  %4 = alloca i32, align 4
  %5 = alloca i32, align 4
  %6 = alloca i32, align 4
  %7 = alloca i32, align 4
  store i32 0, i32* %1, align 4
  %8 = call i32 (i8*, ...) @__isoc99_scanf(i8* getelementptr inbounds ([3 x i8], [3 x i8]* @.str, i64 0, i64 0), i32* %2)
  store i32 0, i32* %5, align 4
  store i32 1, i32* %6, align 4
  store i32 0, i32* %7, align 4
  br label %9

9:                                                ; preds = %20, %0
  %10 = load i32, i32* %2, align 4
  %11 = icmp ne i32 %10, 0
  br i1 %11, label %12, label %27

12:                                               ; preds = %9
  %13 = load i32, i32* %2, align 4
  %14 = srem i32 %13, 10
  store i32 %14, i32* %4, align 4
  %15 = load i32, i32* %4, align 4
  %16 = icmp eq i32 %15, 0
  br i1 %16, label %17, label %20

17:                                               ; preds = %12
  %18 = load i32, i32* %5, align 4
  %19 = add nsw i32 %18, 1
  store i32 %19, i32* %5, align 4
  br label %20

20:                                               ; preds = %17, %12
  %21 = load i32, i32* %2, align 4
  %22 = sdiv i32 %21, 10
  store i32 %22, i32* %2, align 4
  %23 = load i32, i32* %7, align 4
  %24 = mul nsw i32 %23, 10
  %25 = load i32, i32* %4, align 4
  %26 = add nsw i32 %24, %25
  store i32 %26, i32* %7, align 4
  br label %9

27:                                               ; preds = %9
  store i32 1, i32* %3, align 4
  br label %28

28:                                               ; preds = %34, %27
  %29 = load i32, i32* %3, align 4
  %30 = load i32, i32* %5, align 4
  %31 = icmp sle i32 %29, %30
  br i1 %31, label %32, label %37

32:                                               ; preds = %28
  %33 = call i32 (i8*, ...) @printf(i8* getelementptr inbounds ([2 x i8], [2 x i8]* @.str.1, i64 0, i64 0))
  br label %34

34:                                               ; preds = %32
  %35 = load i32, i32* %3, align 4
  %36 = add nsw i32 %35, 1
  store i32 %36, i32* %3, align 4
  br label %28

37:                                               ; preds = %28
  %38 = load i32, i32* %7, align 4
  %39 = call i32 (i8*, ...) @printf(i8* getelementptr inbounds ([3 x i8], [3 x i8]* @.str, i64 0, i64 0), i32 %38)
  %40 = call i32 @getchar()
  %41 = call i32 @getchar()
  %42 = load i32, i32* %1, align 4
  ret i32 %42
}

declare dso_local i32 @__isoc99_scanf(i8*, ...) #1

declare dso_local i32 @printf(i8*, ...) #1

declare dso_local i32 @getchar() #1


!llvm.module.flags = !{!0}
!llvm.ident = !{!1}

!0 = !{i32 1, !"wchar_size", i32 4}
!1 = !{!"clang version 10.0.0-4ubuntu1 "}
